; Function Attrs: mustprogress uwtable
define void @_ZN2cv3MatC2EiPKii(ptr noundef nonnull align 8 dereferenceable(96) initializes((0, 64)) %0, i32 noundef %1, ptr noundef %2, i32 noundef %3) unnamed_addr #1 align 2 {
  store i32 1124007936, ptr %0, align 8, !tbaa !61
  %5 = getelementptr inbounds nuw i8, ptr %0, i64 4
  %6 = getelementptr inbounds nuw i8, ptr %0, i64 8
  %7 = getelementptr inbounds nuw i8, ptr %0, i64 64
  tail call void @llvm.memset.p0.i64(ptr noundef nonnull align 4 dereferenceable(60) %5, i8 0, i64 60, i1 false)
  store ptr %6, ptr %7, align 8, !tbaa !49
  %8 = getelementptr inbounds nuw i8, ptr %0, i64 72
  %9 = getelementptr inbounds nuw i8, ptr %0, i64 80
  store ptr %9, ptr %8, align 8, !tbaa !63
  tail call void @llvm.memset.p0.i64(ptr noundef nonnull align 8 dereferenceable(16) %9, i8 0, i64 16, i1 false)
  tail call void @_ZN2cv3Mat6createEiPKii(ptr noundef nonnull align 8 dereferenceable(96) %0, i32 noundef %1, ptr noundef %2, i32 noundef %3)
  ret void
}